target datalayout = "e-m:e-p270:32:32-p271:32:32-p272:64:64-i64:64-i128:128-f80:128-n8:16:32:64-S128"
target triple = "x86_64-pc-linux-gnu"

%struct.TupleDescData = type { i32, i32, i32, i32, ptr, [0 x %struct.CompactAttribute] }
%struct.CompactAttribute = type { i32, i16, i8, i8, i8, i8, i8, i8, i8 }
%struct.FormData_pg_attribute = type { i32, %struct.nameData, i32, i16, i16, i32, i16, i8, i8, i8, i8, i8, i8, i8, i8, i8, i8, i8, i16, i32 }
%struct.nameData = type { [64 x i8] }

; Function Attrs: inlinehint nounwind uwtable
define internal i64 @UInt32GetDatum(i32 noundef %0) #2 {
  %2 = alloca i32, align 4
  store i32 %0, ptr %2, align 4
  %3 = load i32, ptr %2, align 4
  %4 = zext i32 %3 to i64
  ret i64 %4
}

; Function Attrs: inlinehint nounwind uwtable
define internal ptr @TupleDescAttr(ptr noundef %0, i32 noundef %1) #2 {
  %3 = alloca ptr, align 8
  %4 = alloca i32, align 4
  %5 = alloca ptr, align 8
  store ptr %0, ptr %3, align 8
  store i32 %1, ptr %4, align 4
  call void @llvm.lifetime.start.p0(i64 8, ptr %5) #8
  %6 = load ptr, ptr %3, align 8
  %7 = load ptr, ptr %3, align 8
  %8 = getelementptr inbounds nuw %struct.TupleDescData, ptr %7, i32 0, i32 0
  %9 = load i32, ptr %8, align 8
  %10 = sext i32 %9 to i64
  %11 = mul i64 %10, 16
  %12 = add i64 24, %11
  %13 = getelementptr inbounds nuw i8, ptr %6, i64 %12
  store ptr %13, ptr %5, align 8
  %14 = load ptr, ptr %5, align 8
  %15 = load i32, ptr %4, align 4
  %16 = sext i32 %15 to i64
  %17 = getelementptr inbounds %struct.FormData_pg_attribute, ptr %14, i64 %16
  call void @llvm.lifetime.end.p0(i64 8, ptr %5) #8
  ret ptr %17
}

; Function Attrs: inlinehint nounwind uwtable
define internal i32 @hash_combine(i32 noundef %0, i32 noundef %1) #2 {
  %3 = alloca i32, align 4
  %4 = alloca i32, align 4
  store i32 %0, ptr %3, align 4
  store i32 %1, ptr %4, align 4
  %5 = load i32, ptr %4, align 4
  %6 = add i32 %5, -1640531527
  %7 = load i32, ptr %3, align 4
  %8 = shl i32 %7, 6
  %9 = add i32 %6, %8
  %10 = load i32, ptr %3, align 4
  %11 = lshr i32 %10, 2
  %12 = add i32 %9, %11
  %13 = load i32, ptr %3, align 4
  %14 = xor i32 %13, %12
  store i32 %14, ptr %3, align 4
  %15 = load i32, ptr %3, align 4
  ret i32 %15
}

; Function Attrs: inlinehint nounwind uwtable
define internal i64 @hash_uint32(i32 noundef %0) #2 {
  %2 = alloca i32, align 4
  store i32 %0, ptr %2, align 4
  %3 = load i32, ptr %2, align 4
  %4 = call i32 @hash_bytes_uint32(i32 noundef %3)
  %5 = call i64 @UInt32GetDatum(i32 noundef %4)
  ret i64 %5
}

; Function Attrs: nounwind uwtable
define dso_local i32 @hashRowType(ptr noundef %0) #0 {
  %2 = alloca ptr, align 8
  %3 = alloca i32, align 4
  %4 = alloca i32, align 4
  store ptr %0, ptr %2, align 8
  call void @llvm.lifetime.start.p0(i64 4, ptr %3) #8
  call void @llvm.lifetime.start.p0(i64 4, ptr %4) #8
  %5 = load ptr, ptr %2, align 8
  %6 = getelementptr inbounds nuw %struct.TupleDescData, ptr %5, i32 0, i32 0
  %7 = load i32, ptr %6, align 8
  %8 = call i64 @hash_uint32(i32 noundef %7)
  %9 = trunc i64 %8 to i32
  %10 = call i32 @hash_combine(i32 noundef 0, i32 noundef %9)
  store i32 %10, ptr %3, align 4
  %11 = load i32, ptr %3, align 4
  %12 = load ptr, ptr %2, align 8
  %13 = getelementptr inbounds nuw %struct.TupleDescData, ptr %12, i32 0, i32 1
  %14 = load i32, ptr %13, align 4
  %15 = call i64 @hash_uint32(i32 noundef %14)
  %16 = trunc i64 %15 to i32
  %17 = call i32 @hash_combine(i32 noundef %11, i32 noundef %16)
  store i32 %17, ptr %3, align 4
  store i32 0, ptr %4, align 4
  br label %18

18:                                               ; preds = %34, %1
  %19 = load i32, ptr %4, align 4
  %20 = load ptr, ptr %2, align 8
  %21 = getelementptr inbounds nuw %struct.TupleDescData, ptr %20, i32 0, i32 0
  %22 = load i32, ptr %21, align 8
  %23 = icmp slt i32 %19, %22
  br i1 %23, label %24, label %37

24:                                               ; preds = %18
  %25 = load i32, ptr %3, align 4
  %26 = load ptr, ptr %2, align 8
  %27 = load i32, ptr %4, align 4
  %28 = call ptr @TupleDescAttr(ptr noundef %26, i32 noundef %27)
  %29 = getelementptr inbounds nuw %struct.FormData_pg_attribute, ptr %28, i32 0, i32 2
  %30 = load i32, ptr %29, align 4
  %31 = call i64 @hash_uint32(i32 noundef %30)
  %32 = trunc i64 %31 to i32
  %33 = call i32 @hash_combine(i32 noundef %25, i32 noundef %32)
  store i32 %33, ptr %3, align 4
  br label %34

34:                                               ; preds = %24
  %35 = load i32, ptr %4, align 4
  %36 = add i32 %35, 1
  store i32 %36, ptr %4, align 4
  br label %18, !llvm.loop !23

37:                                               ; preds = %18
  %38 = load i32, ptr %3, align 4
  call void @llvm.lifetime.end.p0(i64 4, ptr %4) #8
  call void @llvm.lifetime.end.p0(i64 4, ptr %3) #8
  ret i32 %38
}