; Function Attrs: nounwind uwtable
define dso_local i32 @hashRowType(ptr noundef readonly captures(none) %0) local_unnamed_addr #0 {
  %2 = load i32, ptr %0, align 8
  %3 = tail call i32 @hash_bytes_uint32(i32 noundef %2) #11
  %4 = add i32 %3, -1640531527
  %5 = getelementptr inbounds nuw i8, ptr %0, i64 4
  %6 = load i32, ptr %5, align 4
  %7 = tail call i32 @hash_bytes_uint32(i32 noundef %6) #11
  %8 = add i32 %7, -1640531527
  %9 = shl i32 %4, 6
  %10 = add i32 %8, %9
  %11 = lshr i32 %4, 2
  %12 = add i32 %10, %11
  %13 = xor i32 %12, %4
  %invariant.gep = getelementptr i8, ptr %0, i64 92
  %14 = load i32, ptr %0, align 8
  %15 = icmp sgt i32 %14, 0
  br i1 %15, label %.lr.ph, label %._crit_edge

.lr.ph:                                           ; preds = %1, %.lr.ph
  %indvars.iv = phi i64 [ %indvars.iv.next, %.lr.ph ], [ 0, %1 ]
  %16 = phi i32 [ %28, %.lr.ph ], [ %14, %1 ]
  %.0910 = phi i32 [ %27, %.lr.ph ], [ %13, %1 ]
  %17 = sext i32 %16 to i64
  %18 = shl nsw i64 %17, 4
  %.idx = mul nuw nsw i64 %indvars.iv, 100
  %gep = getelementptr i8, ptr %invariant.gep, i64 %18
  %19 = getelementptr i8, ptr %gep, i64 %.idx
  %20 = load i32, ptr %19, align 4
  %21 = tail call i32 @hash_bytes_uint32(i32 noundef %20) #11
  %22 = shl i32 %.0910, 6
  %23 = lshr i32 %.0910, 2
  %24 = add i32 %22, -1640531527
  %25 = add i32 %24, %23
  %26 = add i32 %25, %21
  %27 = xor i32 %26, %.0910
  %indvars.iv.next = add nuw nsw i64 %indvars.iv, 1
  %28 = load i32, ptr %0, align 8
  %29 = sext i32 %28 to i64
  %30 = icmp slt i64 %indvars.iv.next, %29
  br i1 %30, label %.lr.ph, label %._crit_edge, !llvm.loop !23

._crit_edge:                                      ; preds = %.lr.ph, %1
  %.09.lcssa = phi i32 [ %13, %1 ], [ %27, %.lr.ph ]
  ret i32 %.09.lcssa
}